target datalayout = "e-m:e-p270:32:32-p271:32:32-p272:64:64-i64:64-i128:128-f80:128-n8:16:32:64-S128"
target triple = "x86_64-pc-linux-gnu"

%class.btConvexInternalShape = type { %class.btConvexShape, %class.btVector3, %class.btVector3, float, float }
%class.btConvexShape = type { %class.btCollisionShape }
%class.btCollisionShape = type { ptr, i32, ptr, i32, i32 }
%class.btVector3 = type { [4 x float] }
%class.btCapsuleShape = type <{ %class.btConvexInternalShape, i32, [4 x i8] }>
%class.btTransform = type { %class.btMatrix3x3, %class.btVector3 }
%class.btMatrix3x3 = type { [3 x %class.btVector3] }

; Function Attrs: mustprogress nounwind uwtable
define linkonce_odr dso_local void @_ZN11btMatrix3x38setValueERKfS1_S1_S1_S1_S1_S1_S1_S1_(ptr noundef nonnull align 4 dereferenceable(48) %0, ptr noundef nonnull align 4 dereferenceable(4) %1, ptr noundef nonnull align 4 dereferenceable(4) %2, ptr noundef nonnull align 4 dereferenceable(4) %3, ptr noundef nonnull align 4 dereferenceable(4) %4, ptr noundef nonnull align 4 dereferenceable(4) %5, ptr noundef nonnull align 4 dereferenceable(4) %6, ptr noundef nonnull align 4 dereferenceable(4) %7, ptr noundef nonnull align 4 dereferenceable(4) %8, ptr noundef nonnull align 4 dereferenceable(4) %9) #1 comdat align 2 {
  %11 = alloca ptr, align 8
  %12 = alloca ptr, align 8
  %13 = alloca ptr, align 8
  %14 = alloca ptr, align 8
  %15 = alloca ptr, align 8
  %16 = alloca ptr, align 8
  %17 = alloca ptr, align 8
  %18 = alloca ptr, align 8
  %19 = alloca ptr, align 8
  %20 = alloca ptr, align 8
  store ptr %0, ptr %11, align 8, !tbaa !52
  store ptr %1, ptr %12, align 8, !tbaa !28
  store ptr %2, ptr %13, align 8, !tbaa !28
  store ptr %3, ptr %14, align 8, !tbaa !28
  store ptr %4, ptr %15, align 8, !tbaa !28
  store ptr %5, ptr %16, align 8, !tbaa !28
  store ptr %6, ptr %17, align 8, !tbaa !28
  store ptr %7, ptr %18, align 8, !tbaa !28
  store ptr %8, ptr %19, align 8, !tbaa !28
  store ptr %9, ptr %20, align 8, !tbaa !28
  %21 = load ptr, ptr %11, align 8
  %22 = getelementptr inbounds nuw %class.btMatrix3x3, ptr %21, i32 0, i32 0
  %23 = getelementptr inbounds [3 x %class.btVector3], ptr %22, i64 0, i64 0
  %24 = load ptr, ptr %12, align 8, !tbaa !28
  %25 = load ptr, ptr %13, align 8, !tbaa !28
  %26 = load ptr, ptr %14, align 8, !tbaa !28
  call void @_ZN9btVector38setValueERKfS1_S1_(ptr noundef nonnull align 4 dereferenceable(16) %23, ptr noundef nonnull align 4 dereferenceable(4) %24, ptr noundef nonnull align 4 dereferenceable(4) %25, ptr noundef nonnull align 4 dereferenceable(4) %26)
  %27 = getelementptr inbounds nuw %class.btMatrix3x3, ptr %21, i32 0, i32 0
  %28 = getelementptr inbounds [3 x %class.btVector3], ptr %27, i64 0, i64 1
  %29 = load ptr, ptr %15, align 8, !tbaa !28
  %30 = load ptr, ptr %16, align 8, !tbaa !28
  %31 = load ptr, ptr %17, align 8, !tbaa !28
  call void @_ZN9btVector38setValueERKfS1_S1_(ptr noundef nonnull align 4 dereferenceable(16) %28, ptr noundef nonnull align 4 dereferenceable(4) %29, ptr noundef nonnull align 4 dereferenceable(4) %30, ptr noundef nonnull align 4 dereferenceable(4) %31)
  %32 = getelementptr inbounds nuw %class.btMatrix3x3, ptr %21, i32 0, i32 0
  %33 = getelementptr inbounds [3 x %class.btVector3], ptr %32, i64 0, i64 2
  %34 = load ptr, ptr %18, align 8, !tbaa !28
  %35 = load ptr, ptr %19, align 8, !tbaa !28
  %36 = load ptr, ptr %20, align 8, !tbaa !28
  call void @_ZN9btVector38setValueERKfS1_S1_(ptr noundef nonnull align 4 dereferenceable(16) %33, ptr noundef nonnull align 4 dereferenceable(4) %34, ptr noundef nonnull align 4 dereferenceable(4) %35, ptr noundef nonnull align 4 dereferenceable(4) %36)
  ret void
}

; Function Attrs: inlinehint mustprogress nounwind uwtable
define linkonce_odr dso_local noundef ptr @_ZNK9btVector3cvPKfEv(ptr noundef nonnull align 4 dereferenceable(16) %0) #4 comdat align 2 {
  %2 = alloca ptr, align 8
  store ptr %0, ptr %2, align 8, !tbaa !26
  %3 = load ptr, ptr %2, align 8
  %4 = getelementptr inbounds nuw %class.btVector3, ptr %3, i32 0, i32 0
  %5 = getelementptr inbounds [4 x float], ptr %4, i64 0, i64 0
  ret ptr %5
}

; Function Attrs: inlinehint mustprogress nounwind uwtable
define linkonce_odr dso_local void @_ZN9btVector38setValueERKfS1_S1_(ptr noundef nonnull align 4 dereferenceable(16) %0, ptr noundef nonnull align 4 dereferenceable(4) %1, ptr noundef nonnull align 4 dereferenceable(4) %2, ptr noundef nonnull align 4 dereferenceable(4) %3) #4 comdat align 2 {
  %5 = alloca ptr, align 8
  %6 = alloca ptr, align 8
  %7 = alloca ptr, align 8
  %8 = alloca ptr, align 8
  store ptr %0, ptr %5, align 8, !tbaa !26
  store ptr %1, ptr %6, align 8, !tbaa !28
  store ptr %2, ptr %7, align 8, !tbaa !28
  store ptr %3, ptr %8, align 8, !tbaa !28
  %9 = load ptr, ptr %5, align 8
  %10 = load ptr, ptr %6, align 8, !tbaa !28
  %11 = load float, ptr %10, align 4, !tbaa !14
  %12 = getelementptr inbounds nuw %class.btVector3, ptr %9, i32 0, i32 0
  %13 = getelementptr inbounds [4 x float], ptr %12, i64 0, i64 0
  store float %11, ptr %13, align 4, !tbaa !14
  %14 = load ptr, ptr %7, align 8, !tbaa !28
  %15 = load float, ptr %14, align 4, !tbaa !14
  %16 = getelementptr inbounds nuw %class.btVector3, ptr %9, i32 0, i32 0
  %17 = getelementptr inbounds [4 x float], ptr %16, i64 0, i64 1
  store float %15, ptr %17, align 4, !tbaa !14
  %18 = load ptr, ptr %8, align 8, !tbaa !28
  %19 = load float, ptr %18, align 4, !tbaa !14
  %20 = getelementptr inbounds nuw %class.btVector3, ptr %9, i32 0, i32 0
  %21 = getelementptr inbounds [4 x float], ptr %20, i64 0, i64 2
  store float %19, ptr %21, align 4, !tbaa !14
  %22 = getelementptr inbounds nuw %class.btVector3, ptr %9, i32 0, i32 0
  %23 = getelementptr inbounds [4 x float], ptr %22, i64 0, i64 3
  store float 0.000000e+00, ptr %23, align 4, !tbaa !14
  ret void
}

; Function Attrs: mustprogress uwtable
define linkonce_odr dso_local void @_ZN11btMatrix3x311setIdentityEv(ptr noundef nonnull align 4 dereferenceable(48) %0) #2 comdat align 2 {
  %2 = alloca ptr, align 8
  %3 = alloca float, align 4
  %4 = alloca float, align 4
  %5 = alloca float, align 4
  %6 = alloca float, align 4
  %7 = alloca float, align 4
  %8 = alloca float, align 4
  %9 = alloca float, align 4
  %10 = alloca float, align 4
  %11 = alloca float, align 4
  store ptr %0, ptr %2, align 8, !tbaa !52
  %12 = load ptr, ptr %2, align 8
  call void @llvm.lifetime.start.p0(i64 4, ptr %3) #12
  store float 1.000000e+00, ptr %3, align 4, !tbaa !14
  call void @llvm.lifetime.start.p0(i64 4, ptr %4) #12
  store float 0.000000e+00, ptr %4, align 4, !tbaa !14
  call void @llvm.lifetime.start.p0(i64 4, ptr %5) #12
  store float 0.000000e+00, ptr %5, align 4, !tbaa !14
  call void @llvm.lifetime.start.p0(i64 4, ptr %6) #12
  store float 0.000000e+00, ptr %6, align 4, !tbaa !14
  call void @llvm.lifetime.start.p0(i64 4, ptr %7) #12
  store float 1.000000e+00, ptr %7, align 4, !tbaa !14
  call void @llvm.lifetime.start.p0(i64 4, ptr %8) #12
  store float 0.000000e+00, ptr %8, align 4, !tbaa !14
  call void @llvm.lifetime.start.p0(i64 4, ptr %9) #12
  store float 0.000000e+00, ptr %9, align 4, !tbaa !14
  call void @llvm.lifetime.start.p0(i64 4, ptr %10) #12
  store float 0.000000e+00, ptr %10, align 4, !tbaa !14
  call void @llvm.lifetime.start.p0(i64 4, ptr %11) #12
  store float 1.000000e+00, ptr %11, align 4, !tbaa !14
  call void @_ZN11btMatrix3x38setValueERKfS1_S1_S1_S1_S1_S1_S1_S1_(ptr noundef nonnull align 4 dereferenceable(48) %12, ptr noundef nonnull align 4 dereferenceable(4) %3, ptr noundef nonnull align 4 dereferenceable(4) %4, ptr noundef nonnull align 4 dereferenceable(4) %5, ptr noundef nonnull align 4 dereferenceable(4) %6, ptr noundef nonnull align 4 dereferenceable(4) %7, ptr noundef nonnull align 4 dereferenceable(4) %8, ptr noundef nonnull align 4 dereferenceable(4) %9, ptr noundef nonnull align 4 dereferenceable(4) %10, ptr noundef nonnull align 4 dereferenceable(4) %11)
  call void @llvm.lifetime.end.p0(i64 4, ptr %11) #12
  call void @llvm.lifetime.end.p0(i64 4, ptr %10) #12
  call void @llvm.lifetime.end.p0(i64 4, ptr %9) #12
  call void @llvm.lifetime.end.p0(i64 4, ptr %8) #12
  call void @llvm.lifetime.end.p0(i64 4, ptr %7) #12
  call void @llvm.lifetime.end.p0(i64 4, ptr %6) #12
  call void @llvm.lifetime.end.p0(i64 4, ptr %5) #12
  call void @llvm.lifetime.end.p0(i64 4, ptr %4) #12
  call void @llvm.lifetime.end.p0(i64 4, ptr %3) #12
  ret void
}

; Function Attrs: inlinehint mustprogress nounwind uwtable
define linkonce_odr dso_local void @_ZN9btVector3C2Ev(ptr noundef nonnull align 4 dereferenceable(16) %0) unnamed_addr #4 comdat align 2 {
  %2 = alloca ptr, align 8
  store ptr %0, ptr %2, align 8, !tbaa !26
  ret void
}

; Function Attrs: mustprogress uwtable
define linkonce_odr dso_local void @_ZN11btMatrix3x3C2Ev(ptr noundef nonnull align 4 dereferenceable(48) %0) unnamed_addr #2 comdat align 2 {
  %2 = alloca ptr, align 8
  store ptr %0, ptr %2, align 8, !tbaa !52
  %3 = load ptr, ptr %2, align 8
  %4 = getelementptr inbounds nuw %class.btMatrix3x3, ptr %3, i32 0, i32 0
  %5 = getelementptr inbounds [3 x %class.btVector3], ptr %4, i32 0, i32 0
  %6 = getelementptr inbounds %class.btVector3, ptr %5, i64 3
  br label %7

7:                                                ; preds = %7, %1
  %8 = phi ptr [ %5, %1 ], [ %9, %7 ]
  call void @_ZN9btVector3C2Ev(ptr noundef nonnull align 4 dereferenceable(16) %8)
  %9 = getelementptr inbounds %class.btVector3, ptr %8, i64 1
  %10 = icmp eq ptr %9, %6
  br i1 %10, label %11, label %7

11:                                               ; preds = %7
  ret void
}

; Function Attrs: mustprogress nounwind uwtable
define linkonce_odr dso_local noundef i32 @_ZNK14btCapsuleShape9getUpAxisEv(ptr noundef nonnull align 8 dereferenceable(76) %0) #1 comdat align 2 {
  %2 = alloca ptr, align 8
  store ptr %0, ptr %2, align 8, !tbaa !12
  %3 = load ptr, ptr %2, align 8
  %4 = getelementptr inbounds nuw %class.btCapsuleShape, ptr %3, i32 0, i32 1
  %5 = load i32, ptr %4, align 8, !tbaa !24
  ret i32 %5
}

; Function Attrs: inlinehint mustprogress nounwind uwtable
define linkonce_odr dso_local noundef ptr @_ZN9btVector3cvPfEv(ptr noundef nonnull align 4 dereferenceable(16) %0) #4 comdat align 2 {
  %2 = alloca ptr, align 8
  store ptr %0, ptr %2, align 8, !tbaa !26
  %3 = load ptr, ptr %2, align 8
  %4 = getelementptr inbounds nuw %class.btVector3, ptr %3, i32 0, i32 0
  %5 = getelementptr inbounds [4 x float], ptr %4, i64 0, i64 0
  ret ptr %5
}

; Function Attrs: mustprogress uwtable
define linkonce_odr dso_local noundef float @_ZNK14btCapsuleShape13getHalfHeightEv(ptr noundef nonnull align 8 dereferenceable(76) %0) #2 comdat align 2 {
  %2 = alloca ptr, align 8
  store ptr %0, ptr %2, align 8, !tbaa !12
  %3 = load ptr, ptr %2, align 8
  %4 = getelementptr inbounds nuw %class.btConvexInternalShape, ptr %3, i32 0, i32 2
  %5 = call noundef ptr @_ZNK9btVector3cvPKfEv(ptr noundef nonnull align 4 dereferenceable(16) %4)
  %6 = getelementptr inbounds nuw %class.btCapsuleShape, ptr %3, i32 0, i32 1
  %7 = load i32, ptr %6, align 8, !tbaa !24
  %8 = sext i32 %7 to i64
  %9 = getelementptr inbounds float, ptr %5, i64 %8
  %10 = load float, ptr %9, align 4, !tbaa !14
  ret float %10
}

; Function Attrs: inlinehint mustprogress nounwind uwtable
define linkonce_odr dso_local void @_ZN9btVector3C2ERKfS1_S1_(ptr noundef nonnull align 4 dereferenceable(16) %0, ptr noundef nonnull align 4 dereferenceable(4) %1, ptr noundef nonnull align 4 dereferenceable(4) %2, ptr noundef nonnull align 4 dereferenceable(4) %3) unnamed_addr #4 comdat align 2 {
  %5 = alloca ptr, align 8
  %6 = alloca ptr, align 8
  %7 = alloca ptr, align 8
  %8 = alloca ptr, align 8
  store ptr %0, ptr %5, align 8, !tbaa !26
  store ptr %1, ptr %6, align 8, !tbaa !28
  store ptr %2, ptr %7, align 8, !tbaa !28
  store ptr %3, ptr %8, align 8, !tbaa !28
  %9 = load ptr, ptr %5, align 8
  %10 = load ptr, ptr %6, align 8, !tbaa !28
  %11 = load float, ptr %10, align 4, !tbaa !14
  %12 = getelementptr inbounds nuw %class.btVector3, ptr %9, i32 0, i32 0
  %13 = getelementptr inbounds [4 x float], ptr %12, i64 0, i64 0
  store float %11, ptr %13, align 4, !tbaa !14
  %14 = load ptr, ptr %7, align 8, !tbaa !28
  %15 = load float, ptr %14, align 4, !tbaa !14
  %16 = getelementptr inbounds nuw %class.btVector3, ptr %9, i32 0, i32 0
  %17 = getelementptr inbounds [4 x float], ptr %16, i64 0, i64 1
  store float %15, ptr %17, align 4, !tbaa !14
  %18 = load ptr, ptr %8, align 8, !tbaa !28
  %19 = load float, ptr %18, align 4, !tbaa !14
  %20 = getelementptr inbounds nuw %class.btVector3, ptr %9, i32 0, i32 0
  %21 = getelementptr inbounds [4 x float], ptr %20, i64 0, i64 2
  store float %19, ptr %21, align 4, !tbaa !14
  %22 = getelementptr inbounds nuw %class.btVector3, ptr %9, i32 0, i32 0
  %23 = getelementptr inbounds [4 x float], ptr %22, i64 0, i64 3
  store float 0.000000e+00, ptr %23, align 4, !tbaa !14
  ret void
}

; Function Attrs: mustprogress nounwind uwtable
define linkonce_odr dso_local noundef float @_ZNK14btCapsuleShape9getRadiusEv(ptr noundef nonnull align 8 dereferenceable(76) %0) #1 comdat align 2 {
  %2 = alloca ptr, align 8
  %3 = alloca i32, align 4
  store ptr %0, ptr %2, align 8, !tbaa !12
  %4 = load ptr, ptr %2, align 8
  call void @llvm.lifetime.start.p0(i64 4, ptr %3) #12
  %5 = getelementptr inbounds nuw %class.btCapsuleShape, ptr %4, i32 0, i32 1
  %6 = load i32, ptr %5, align 8, !tbaa !24
  %7 = add nsw i32 %6, 2
  %8 = srem i32 %7, 3
  store i32 %8, ptr %3, align 4, !tbaa !9
  %9 = getelementptr inbounds nuw %class.btConvexInternalShape, ptr %4, i32 0, i32 2
  %10 = call noundef ptr @_ZNK9btVector3cvPKfEv(ptr noundef nonnull align 4 dereferenceable(16) %9)
  %11 = load i32, ptr %3, align 4, !tbaa !9
  %12 = sext i32 %11 to i64
  %13 = getelementptr inbounds float, ptr %10, i64 %12
  %14 = load float, ptr %13, align 4, !tbaa !14
  call void @llvm.lifetime.end.p0(i64 4, ptr %3) #12
  ret float %14
}

; Function Attrs: mustprogress uwtable
define linkonce_odr dso_local void @_ZN11btTransform11setIdentityEv(ptr noundef nonnull align 4 dereferenceable(64) %0) #2 comdat align 2 {
  %2 = alloca ptr, align 8
  %3 = alloca float, align 4
  %4 = alloca float, align 4
  %5 = alloca float, align 4
  store ptr %0, ptr %2, align 8, !tbaa !33
  %6 = load ptr, ptr %2, align 8
  %7 = getelementptr inbounds nuw %class.btTransform, ptr %6, i32 0, i32 0
  call void @_ZN11btMatrix3x311setIdentityEv(ptr noundef nonnull align 4 dereferenceable(48) %7)
  %8 = getelementptr inbounds nuw %class.btTransform, ptr %6, i32 0, i32 1
  call void @llvm.lifetime.start.p0(i64 4, ptr %3) #12
  store float 0.000000e+00, ptr %3, align 4, !tbaa !14
  call void @llvm.lifetime.start.p0(i64 4, ptr %4) #12
  store float 0.000000e+00, ptr %4, align 4, !tbaa !14
  call void @llvm.lifetime.start.p0(i64 4, ptr %5) #12
  store float 0.000000e+00, ptr %5, align 4, !tbaa !14
  call void @_ZN9btVector38setValueERKfS1_S1_(ptr noundef nonnull align 4 dereferenceable(16) %8, ptr noundef nonnull align 4 dereferenceable(4) %3, ptr noundef nonnull align 4 dereferenceable(4) %4, ptr noundef nonnull align 4 dereferenceable(4) %5)
  call void @llvm.lifetime.end.p0(i64 4, ptr %5) #12
  call void @llvm.lifetime.end.p0(i64 4, ptr %4) #12
  call void @llvm.lifetime.end.p0(i64 4, ptr %3) #12
  ret void
}

; Function Attrs: mustprogress uwtable
define linkonce_odr dso_local void @_ZN11btTransformC2Ev(ptr noundef nonnull align 4 dereferenceable(64) %0) unnamed_addr #2 comdat align 2 {
  %2 = alloca ptr, align 8
  store ptr %0, ptr %2, align 8, !tbaa !33
  %3 = load ptr, ptr %2, align 8
  %4 = getelementptr inbounds nuw %class.btTransform, ptr %3, i32 0, i32 0
  call void @_ZN11btMatrix3x3C2Ev(ptr noundef nonnull align 4 dereferenceable(48) %4)
  %5 = getelementptr inbounds nuw %class.btTransform, ptr %3, i32 0, i32 1
  call void @_ZN9btVector3C2Ev(ptr noundef nonnull align 4 dereferenceable(16) %5)
  ret void
}

; Function Attrs: mustprogress uwtable
define dso_local void @_ZNK14btCapsuleShape21calculateLocalInertiaEfR9btVector3(ptr noundef nonnull align 8 dereferenceable(76) %0, float noundef %1, ptr noundef nonnull align 4 dereferenceable(16) %2) unnamed_addr #2 align 2 {
  %4 = alloca ptr, align 8
  %5 = alloca float, align 4
  %6 = alloca ptr, align 8
  %7 = alloca %class.btTransform, align 4
  %8 = alloca float, align 4
  %9 = alloca %class.btVector3, align 4
  %10 = alloca float, align 4
  %11 = alloca float, align 4
  %12 = alloca float, align 4
  %13 = alloca float, align 4
  %14 = alloca float, align 4
  %15 = alloca float, align 4
  %16 = alloca float, align 4
  store ptr %0, ptr %4, align 8, !tbaa !12
  store float %1, ptr %5, align 4, !tbaa !14
  store ptr %2, ptr %6, align 8, !tbaa !26
  %17 = load ptr, ptr %4, align 8
  call void @llvm.lifetime.start.p0(i64 64, ptr %7) #12
  call void @_ZN11btTransformC2Ev(ptr noundef nonnull align 4 dereferenceable(64) %7)
  call void @_ZN11btTransform11setIdentityEv(ptr noundef nonnull align 4 dereferenceable(64) %7)
  call void @llvm.lifetime.start.p0(i64 4, ptr %8) #12
  %18 = call noundef float @_ZNK14btCapsuleShape9getRadiusEv(ptr noundef nonnull align 8 dereferenceable(76) %17)
  store float %18, ptr %8, align 4, !tbaa !14
  call void @llvm.lifetime.start.p0(i64 16, ptr %9) #12
  call void @_ZN9btVector3C2ERKfS1_S1_(ptr noundef nonnull align 4 dereferenceable(16) %9, ptr noundef nonnull align 4 dereferenceable(4) %8, ptr noundef nonnull align 4 dereferenceable(4) %8, ptr noundef nonnull align 4 dereferenceable(4) %8)
  %19 = call noundef float @_ZNK14btCapsuleShape13getHalfHeightEv(ptr noundef nonnull align 8 dereferenceable(76) %17)
  %20 = call noundef ptr @_ZN9btVector3cvPfEv(ptr noundef nonnull align 4 dereferenceable(16) %9)
  %21 = call noundef i32 @_ZNK14btCapsuleShape9getUpAxisEv(ptr noundef nonnull align 8 dereferenceable(76) %17)
  %22 = sext i32 %21 to i64
  %23 = getelementptr inbounds float, ptr %20, i64 %22
  %24 = load float, ptr %23, align 4, !tbaa !14
  %25 = fadd float %24, %19
  store float %25, ptr %23, align 4, !tbaa !14
  call void @llvm.lifetime.start.p0(i64 4, ptr %10) #12
  %26 = call noundef ptr @_ZN9btVector3cvPfEv(ptr noundef nonnull align 4 dereferenceable(16) %9)
  %27 = getelementptr inbounds float, ptr %26, i64 0
  %28 = load float, ptr %27, align 4, !tbaa !14
  %29 = fmul float 2.000000e+00, %28
  store float %29, ptr %10, align 4, !tbaa !14
  call void @llvm.lifetime.start.p0(i64 4, ptr %11) #12
  %30 = call noundef ptr @_ZN9btVector3cvPfEv(ptr noundef nonnull align 4 dereferenceable(16) %9)
  %31 = getelementptr inbounds float, ptr %30, i64 1
  %32 = load float, ptr %31, align 4, !tbaa !14
  %33 = fmul float 2.000000e+00, %32
  store float %33, ptr %11, align 4, !tbaa !14
  call void @llvm.lifetime.start.p0(i64 4, ptr %12) #12
  %34 = call noundef ptr @_ZN9btVector3cvPfEv(ptr noundef nonnull align 4 dereferenceable(16) %9)
  %35 = getelementptr inbounds float, ptr %34, i64 2
  %36 = load float, ptr %35, align 4, !tbaa !14
  %37 = fmul float 2.000000e+00, %36
  store float %37, ptr %12, align 4, !tbaa !14
  call void @llvm.lifetime.start.p0(i64 4, ptr %13) #12
  %38 = load float, ptr %10, align 4, !tbaa !14
  %39 = load float, ptr %10, align 4, !tbaa !14
  %40 = fmul float %38, %39
  store float %40, ptr %13, align 4, !tbaa !14
  call void @llvm.lifetime.start.p0(i64 4, ptr %14) #12
  %41 = load float, ptr %11, align 4, !tbaa !14
  %42 = load float, ptr %11, align 4, !tbaa !14
  %43 = fmul float %41, %42
  store float %43, ptr %14, align 4, !tbaa !14
  call void @llvm.lifetime.start.p0(i64 4, ptr %15) #12
  %44 = load float, ptr %12, align 4, !tbaa !14
  %45 = load float, ptr %12, align 4, !tbaa !14
  %46 = fmul float %44, %45
  store float %46, ptr %15, align 4, !tbaa !14
  call void @llvm.lifetime.start.p0(i64 4, ptr %16) #12
  %47 = load float, ptr %5, align 4, !tbaa !14
  %48 = fmul float %47, 0x3FB5555540000000
  store float %48, ptr %16, align 4, !tbaa !14
  %49 = load float, ptr %16, align 4, !tbaa !14
  %50 = load float, ptr %14, align 4, !tbaa !14
  %51 = load float, ptr %15, align 4, !tbaa !14
  %52 = fadd float %50, %51
  %53 = fmul float %49, %52
  %54 = load ptr, ptr %6, align 8, !tbaa !26
  %55 = call noundef ptr @_ZN9btVector3cvPfEv(ptr noundef nonnull align 4 dereferenceable(16) %54)
  %56 = getelementptr inbounds float, ptr %55, i64 0
  store float %53, ptr %56, align 4, !tbaa !14
  %57 = load float, ptr %16, align 4, !tbaa !14
  %58 = load float, ptr %13, align 4, !tbaa !14
  %59 = load float, ptr %15, align 4, !tbaa !14
  %60 = fadd float %58, %59
  %61 = fmul float %57, %60
  %62 = load ptr, ptr %6, align 8, !tbaa !26
  %63 = call noundef ptr @_ZN9btVector3cvPfEv(ptr noundef nonnull align 4 dereferenceable(16) %62)
  %64 = getelementptr inbounds float, ptr %63, i64 1
  store float %61, ptr %64, align 4, !tbaa !14
  %65 = load float, ptr %16, align 4, !tbaa !14
  %66 = load float, ptr %13, align 4, !tbaa !14
  %67 = load float, ptr %14, align 4, !tbaa !14
  %68 = fadd float %66, %67
  %69 = fmul float %65, %68
  %70 = load ptr, ptr %6, align 8, !tbaa !26
  %71 = call noundef ptr @_ZN9btVector3cvPfEv(ptr noundef nonnull align 4 dereferenceable(16) %70)
  %72 = getelementptr inbounds float, ptr %71, i64 2
  store float %69, ptr %72, align 4, !tbaa !14
  call void @llvm.lifetime.end.p0(i64 4, ptr %16) #12
  call void @llvm.lifetime.end.p0(i64 4, ptr %15) #12
  call void @llvm.lifetime.end.p0(i64 4, ptr %14) #12
  call void @llvm.lifetime.end.p0(i64 4, ptr %13) #12
  call void @llvm.lifetime.end.p0(i64 4, ptr %12) #12
  call void @llvm.lifetime.end.p0(i64 4, ptr %11) #12
  call void @llvm.lifetime.end.p0(i64 4, ptr %10) #12
  call void @llvm.lifetime.end.p0(i64 16, ptr %9) #12
  call void @llvm.lifetime.end.p0(i64 4, ptr %8) #12
  call void @llvm.lifetime.end.p0(i64 64, ptr %7) #12
  ret void
}