; Function Attrs: mustprogress nofree norecurse nosync nounwind willreturn memory(argmem: readwrite) uwtable
define dso_local void @_ZNK14btCapsuleShape21calculateLocalInertiaEfR9btVector3(ptr noundef nonnull readonly align 8 captures(none) dereferenceable(76) %0, float noundef %1, ptr noundef nonnull writeonly align 4 captures(none) dereferenceable(16) initializes((0, 12)) %2) unnamed_addr #5 align 2 {
  %4 = alloca %class.btVector3, align 4
  %5 = getelementptr inbounds nuw i8, ptr %0, i64 72
  %6 = load i32, ptr %5, align 8, !tbaa !17
  %7 = add nsw i32 %6, 2
  %8 = srem i32 %7, 3
  %9 = getelementptr inbounds nuw i8, ptr %0, i64 48
  %10 = sext i32 %8 to i64
  %11 = getelementptr inbounds float, ptr %9, i64 %10
  %12 = load float, ptr %11, align 4, !tbaa !19
  call void @llvm.lifetime.start.p0(i64 16, ptr nonnull %4) #16
  store float %12, ptr %4, align 4, !tbaa !19
  %13 = getelementptr inbounds nuw i8, ptr %4, i64 4
  store float %12, ptr %13, align 4, !tbaa !19
  %14 = getelementptr inbounds nuw i8, ptr %4, i64 8
  store float %12, ptr %14, align 4, !tbaa !19
  %15 = getelementptr inbounds nuw i8, ptr %4, i64 12
  store float 0.000000e+00, ptr %15, align 4, !tbaa !19
  %16 = sext i32 %6 to i64
  %17 = getelementptr inbounds float, ptr %9, i64 %16
  %18 = load float, ptr %17, align 4, !tbaa !19
  %19 = getelementptr inbounds float, ptr %4, i64 %16
  %20 = load float, ptr %19, align 4, !tbaa !19
  %21 = fadd float %18, %20
  store float %21, ptr %19, align 4, !tbaa !19
  %22 = load float, ptr %4, align 4, !tbaa !19
  %23 = fmul float %22, 2.000000e+00
  %24 = load float, ptr %13, align 4, !tbaa !19
  %25 = fmul float %24, 2.000000e+00
  %26 = load float, ptr %14, align 4, !tbaa !19
  %27 = fmul float %26, 2.000000e+00
  %28 = fmul float %23, %23
  %29 = fmul float %25, %25
  %30 = fmul float %27, %27
  %31 = fmul float %1, 0x3FB5555540000000
  %32 = fadd float %29, %30
  %33 = fmul float %31, %32
  store float %33, ptr %2, align 4, !tbaa !19
  %34 = fadd float %28, %30
  %35 = fmul float %31, %34
  %36 = getelementptr inbounds nuw i8, ptr %2, i64 4
  store float %35, ptr %36, align 4, !tbaa !19
  %37 = fadd float %28, %29
  %38 = fmul float %31, %37
  %39 = getelementptr inbounds nuw i8, ptr %2, i64 8
  store float %38, ptr %39, align 4, !tbaa !19
  call void @llvm.lifetime.end.p0(i64 16, ptr nonnull %4) #16
  ret void
}